; Function Attrs: mustprogress uwtable
define { ptr, i64 } @_ZN7rocksdb20PropertyBlockBuilder6FinishEv(ptr noundef nonnull readonly align 8 dereferenceable(56) %this) local_unnamed_addr #3 align 2 {
entry:
  %ref.tmp = alloca %"class.rocksdb::Slice", align 8
  %ref.tmp7 = alloca %"class.rocksdb::Slice", align 8
  %_M_left.i.i = getelementptr inbounds i8, ptr %this, i64 32
  %0 = load ptr, ptr %_M_left.i.i, align 8
  %add.ptr.i.i = getelementptr inbounds i8, ptr %this, i64 16
  %cmp.i.not9 = icmp eq ptr %0, %add.ptr.i.i
  br i1 %cmp.i.not9, label %for.end, label %for.body.lr.ph

for.body.lr.ph:                                   ; preds = %entry
  %size_.i = getelementptr inbounds i8, ptr %ref.tmp, i64 8
  %size_.i4 = getelementptr inbounds i8, ptr %ref.tmp7, i64 8
  br label %for.body

for.body:                                         ; preds = %for.body.lr.ph, %for.body
  %__begin1.sroa.0.010 = phi ptr [ %0, %for.body.lr.ph ], [ %call.i6, %for.body ]
  %_M_storage.i.i = getelementptr inbounds i8, ptr %__begin1.sroa.0.010, i64 32
  %1 = load ptr, ptr %this, align 8
  %call.i = call noundef ptr @_ZNKSt7__cxx1112basic_stringIcSt11char_traitsIcESaIcEE4dataEv(ptr noundef nonnull align 8 dereferenceable(32) %_M_storage.i.i) #20
  store ptr %call.i, ptr %ref.tmp, align 8
  %call2.i = call noundef i64 @_ZNKSt7__cxx1112basic_stringIcSt11char_traitsIcESaIcEE4sizeEv(ptr noundef nonnull align 8 dereferenceable(32) %_M_storage.i.i) #20
  store i64 %call2.i, ptr %size_.i, align 8
  %second = getelementptr inbounds i8, ptr %__begin1.sroa.0.010, i64 64
  %call.i3 = call noundef ptr @_ZNKSt7__cxx1112basic_stringIcSt11char_traitsIcESaIcEE4dataEv(ptr noundef nonnull align 8 dereferenceable(32) %second) #20
  store ptr %call.i3, ptr %ref.tmp7, align 8
  %call2.i5 = call noundef i64 @_ZNKSt7__cxx1112basic_stringIcSt11char_traitsIcESaIcEE4sizeEv(ptr noundef nonnull align 8 dereferenceable(32) %second) #20
  store i64 %call2.i5, ptr %size_.i4, align 8
  call void @_ZN7rocksdb12BlockBuilder3AddERKNS_5SliceES3_PS2_(ptr noundef nonnull align 8 dereferenceable(176) %1, ptr noundef nonnull align 8 dereferenceable(16) %ref.tmp, ptr noundef nonnull align 8 dereferenceable(16) %ref.tmp7, ptr noundef null)
  %call.i6 = call noundef ptr @_ZSt18_Rb_tree_incrementPSt18_Rb_tree_node_base(ptr noundef %__begin1.sroa.0.010) #22
  %cmp.i.not = icmp eq ptr %call.i6, %add.ptr.i.i
  br i1 %cmp.i.not, label %for.end, label %for.body

for.end:                                          ; preds = %for.body, %entry
  %2 = load ptr, ptr %this, align 8
  %call11 = call { ptr, i64 } @_ZN7rocksdb12BlockBuilder6FinishEv(ptr noundef nonnull align 8 dereferenceable(176) %2)
  ret { ptr, i64 } %call11
}